target datalayout = "e-m:e-p270:32:32-p271:32:32-p272:64:64-i64:64-i128:128-f80:128-n8:16:32:64-S128"
target triple = "x86_64-pc-linux-gnu"

%"class.cvc5::internal::theory::arith::EqualitySolver" = type { %"class.cvc5::internal::EnvObj", ptr, ptr, %"class.cvc5::internal::theory::arith::EqualitySolver::EqualitySolverNotify", ptr, %"class.cvc5::context::CDHashSet", ptr }
%"class.cvc5::internal::EnvObj" = type { ptr, ptr }
%"class.cvc5::internal::theory::arith::EqualitySolver::EqualitySolverNotify" = type { %"class.cvc5::internal::theory::eq::EqualityEngineNotify", ptr }
%"class.cvc5::internal::theory::eq::EqualityEngineNotify" = type { ptr }
%"class.cvc5::context::CDHashSet" = type { %"class.cvc5::context::CDInsertHashMap" }
%"class.cvc5::context::CDInsertHashMap" = type { %"class.cvc5::context::ContextObj", ptr, i64 }
%"class.cvc5::context::ContextObj" = type { ptr, ptr, ptr, ptr, ptr }

; Function Attrs: mustprogress uwtable
define hidden void @_ZN4cvc58internal6theory5arith14EqualitySolver10finishInitEv(ptr noundef nonnull align 8 dereferenceable(120) %0) #4 align 2 {
  %2 = alloca ptr, align 8
  store ptr %0, ptr %2, align 8, !tbaa !3
  %3 = load ptr, ptr %2, align 8
  %4 = getelementptr inbounds nuw %"class.cvc5::internal::theory::arith::EqualitySolver", ptr %3, i32 0, i32 1
  %5 = load ptr, ptr %4, align 8, !tbaa !53
  %6 = call noundef ptr @_ZNK4cvc58internal6theory11TheoryState17getEqualityEngineEv(ptr noundef nonnull align 8 dereferenceable(160) %5)
  %7 = getelementptr inbounds nuw %"class.cvc5::internal::theory::arith::EqualitySolver", ptr %3, i32 0, i32 4
  store ptr %6, ptr %7, align 8, !tbaa !16
  %8 = getelementptr inbounds nuw %"class.cvc5::internal::theory::arith::EqualitySolver", ptr %3, i32 0, i32 4
  %9 = load ptr, ptr %8, align 8, !tbaa !16
  call void @_ZN4cvc58internal6theory2eq14EqualityEngine15addFunctionKindENS0_4kind6Kind_tEbb(ptr noundef nonnull align 8 dereferenceable(1784) %9, i32 noundef 41, i1 noundef zeroext false, i1 noundef zeroext false)
  %10 = getelementptr inbounds nuw %"class.cvc5::internal::theory::arith::EqualitySolver", ptr %3, i32 0, i32 4
  %11 = load ptr, ptr %10, align 8, !tbaa !16
  call void @_ZN4cvc58internal6theory2eq14EqualityEngine15addFunctionKindENS0_4kind6Kind_tEbb(ptr noundef nonnull align 8 dereferenceable(1784) %11, i32 noundef 56, i1 noundef zeroext false, i1 noundef zeroext false)
  %12 = getelementptr inbounds nuw %"class.cvc5::internal::theory::arith::EqualitySolver", ptr %3, i32 0, i32 4
  %13 = load ptr, ptr %12, align 8, !tbaa !16
  call void @_ZN4cvc58internal6theory2eq14EqualityEngine15addFunctionKindENS0_4kind6Kind_tEbb(ptr noundef nonnull align 8 dereferenceable(1784) %13, i32 noundef 57, i1 noundef zeroext false, i1 noundef zeroext false)
  %14 = getelementptr inbounds nuw %"class.cvc5::internal::theory::arith::EqualitySolver", ptr %3, i32 0, i32 4
  %15 = load ptr, ptr %14, align 8, !tbaa !16
  call void @_ZN4cvc58internal6theory2eq14EqualityEngine15addFunctionKindENS0_4kind6Kind_tEbb(ptr noundef nonnull align 8 dereferenceable(1784) %15, i32 noundef 86, i1 noundef zeroext false, i1 noundef zeroext false)
  %16 = getelementptr inbounds nuw %"class.cvc5::internal::theory::arith::EqualitySolver", ptr %3, i32 0, i32 4
  %17 = load ptr, ptr %16, align 8, !tbaa !16
  call void @_ZN4cvc58internal6theory2eq14EqualityEngine15addFunctionKindENS0_4kind6Kind_tEbb(ptr noundef nonnull align 8 dereferenceable(1784) %17, i32 noundef 53, i1 noundef zeroext false, i1 noundef zeroext false)
  ret void
}