; Function Attrs: mustprogress uwtable
define hidden void @_ZN4cvc58internal6theory5arith14EqualitySolver10finishInitEv(ptr noundef nonnull align 8 captures(none) dereferenceable(120) initializes((48, 56)) %0) local_unnamed_addr #3 align 2 {
  %2 = getelementptr inbounds nuw i8, ptr %0, i64 16
  %3 = load ptr, ptr %2, align 8, !tbaa !50
  %4 = tail call noundef ptr @_ZNK4cvc58internal6theory11TheoryState17getEqualityEngineEv(ptr noundef nonnull align 8 dereferenceable(160) %3)
  %5 = getelementptr inbounds nuw i8, ptr %0, i64 48
  store ptr %4, ptr %5, align 8, !tbaa !14
  tail call void @_ZN4cvc58internal6theory2eq14EqualityEngine15addFunctionKindENS0_4kind6Kind_tEbb(ptr noundef nonnull align 8 dereferenceable(1784) %4, i32 noundef 41, i1 noundef zeroext false, i1 noundef zeroext false)
  %6 = load ptr, ptr %5, align 8, !tbaa !14
  tail call void @_ZN4cvc58internal6theory2eq14EqualityEngine15addFunctionKindENS0_4kind6Kind_tEbb(ptr noundef nonnull align 8 dereferenceable(1784) %6, i32 noundef 56, i1 noundef zeroext false, i1 noundef zeroext false)
  %7 = load ptr, ptr %5, align 8, !tbaa !14
  tail call void @_ZN4cvc58internal6theory2eq14EqualityEngine15addFunctionKindENS0_4kind6Kind_tEbb(ptr noundef nonnull align 8 dereferenceable(1784) %7, i32 noundef 57, i1 noundef zeroext false, i1 noundef zeroext false)
  %8 = load ptr, ptr %5, align 8, !tbaa !14
  tail call void @_ZN4cvc58internal6theory2eq14EqualityEngine15addFunctionKindENS0_4kind6Kind_tEbb(ptr noundef nonnull align 8 dereferenceable(1784) %8, i32 noundef 86, i1 noundef zeroext false, i1 noundef zeroext false)
  %9 = load ptr, ptr %5, align 8, !tbaa !14
  tail call void @_ZN4cvc58internal6theory2eq14EqualityEngine15addFunctionKindENS0_4kind6Kind_tEbb(ptr noundef nonnull align 8 dereferenceable(1784) %9, i32 noundef 53, i1 noundef zeroext false, i1 noundef zeroext false)
  ret void
}